target datalayout = "e-m:e-p270:32:32-p271:32:32-p272:64:64-i64:64-i128:128-f80:128-n8:16:32:64-S128"
target triple = "x86_64-unknown-linux-gnu"

%"class.QuantLib::LPP2HestonExpansion" = type { %"class.QuantLib::HestonExpansion", [3 x double], double, double, double, double }
%"class.QuantLib::HestonExpansion" = type { ptr }

; Function Attrs: inlinehint mustprogress nounwind uwtable
define linkonce_odr noundef double @_ZSt3powIdiEN9__gnu_cxx9__promoteIDTplcvNS1_IT_Xsr3std12__is_integerIS2_EE7__valueEE6__typeELi0EcvNS1_IT0_Xsr3std12__is_integerIS5_EE7__valueEE6__typeELi0EEXsr3std12__is_integerIS8_EE7__valueEE6__typeES2_S5_(double noundef %__x, i32 noundef %__y) #5 comdat {
entry:
  %__x.addr = alloca double, align 8
  %__y.addr = alloca i32, align 4
  store double %__x, ptr %__x.addr, align 8, !tbaa !53
  store i32 %__y, ptr %__y.addr, align 4, !tbaa !54
  %0 = load double, ptr %__x.addr, align 8, !tbaa !53
  %1 = load i32, ptr %__y.addr, align 4, !tbaa !54
  %conv = sitofp i32 %1 to double
  %call = call double @pow(double noundef %0, double noundef %conv) #13, !tbaa !54
  ret double %call
}

; Function Attrs: mustprogress nounwind uwtable
define internal noundef double @_ZN8QuantLibL7fastpowEdi(double noundef %x, i32 noundef %y) #1 {
entry:
  %x.addr = alloca double, align 8
  %y.addr = alloca i32, align 4
  store double %x, ptr %x.addr, align 8, !tbaa !53
  store i32 %y, ptr %y.addr, align 4, !tbaa !54
  %0 = load double, ptr %x.addr, align 8, !tbaa !53
  %1 = load i32, ptr %y.addr, align 4, !tbaa !54
  %call = call noundef double @_ZSt3powIdiEN9__gnu_cxx9__promoteIDTplcvNS1_IT_Xsr3std12__is_integerIS2_EE7__valueEE6__typeELi0EcvNS1_IT0_Xsr3std12__is_integerIS5_EE7__valueEE6__typeELi0EEXsr3std12__is_integerIS8_EE7__valueEE6__typeES2_S5_(double noundef %0, i32 noundef %1)
  ret double %call
}

; Function Attrs: mustprogress uwtable
define noundef double @_ZNK8QuantLib19LPP2HestonExpansion2z2Edddddd(ptr noundef nonnull align 8 dereferenceable(64) %this, double noundef %t, double noundef %kappa, double noundef %theta, double noundef %delta, double noundef %y, double noundef %rho) #2 align 2 {
entry:
  %this.addr = alloca ptr, align 8
  %t.addr = alloca double, align 8
  %kappa.addr = alloca double, align 8
  %theta.addr = alloca double, align 8
  %delta.addr = alloca double, align 8
  %y.addr = alloca double, align 8
  %rho.addr = alloca double, align 8
  store ptr %this, ptr %this.addr, align 8, !tbaa !3
  store double %t, ptr %t.addr, align 8, !tbaa !53
  store double %kappa, ptr %kappa.addr, align 8, !tbaa !53
  store double %theta, ptr %theta.addr, align 8, !tbaa !53
  store double %delta, ptr %delta.addr, align 8, !tbaa !53
  store double %y, ptr %y.addr, align 8, !tbaa !53
  store double %rho, ptr %rho.addr, align 8, !tbaa !53
  %this1 = load ptr, ptr %this.addr, align 8
  %0 = load double, ptr %delta.addr, align 8, !tbaa !53
  %call = call noundef double @_ZN8QuantLibL7fastpowEdi(double noundef %0, i32 noundef 2)
  %1 = load double, ptr %theta.addr, align 8, !tbaa !53
  %fneg = fneg double %1
  %2 = load double, ptr %kappa.addr, align 8, !tbaa !53
  %3 = load double, ptr %t.addr, align 8, !tbaa !53
  %mul = fmul double %2, %3
  %4 = load double, ptr %theta.addr, align 8, !tbaa !53
  %5 = call double @llvm.fmuladd.f64(double %mul, double %4, double %fneg)
  %6 = load double, ptr %theta.addr, align 8, !tbaa !53
  %7 = load double, ptr %y.addr, align 8, !tbaa !53
  %sub = fsub double %6, %7
  %ekt = getelementptr inbounds nuw %"class.QuantLib::LPP2HestonExpansion", ptr %this1, i32 0, i32 2
  %8 = load double, ptr %ekt, align 8, !tbaa !84
  %div = fdiv double %sub, %8
  %add = fadd double %5, %div
  %9 = load double, ptr %y.addr, align 8, !tbaa !53
  %add3 = fadd double %add, %9
  %10 = load double, ptr %kappa.addr, align 8, !tbaa !53
  %11 = load double, ptr %t.addr, align 8, !tbaa !53
  %mul4 = fmul double %10, %11
  %div5 = fdiv double %add3, %mul4
  %call6 = call double @sqrt(double noundef %div5) #13, !tbaa !54
  %mul7 = fmul double %call, %call6
  %12 = load double, ptr %rho.addr, align 8, !tbaa !53
  %call8 = call noundef double @_ZN8QuantLibL7fastpowEdi(double noundef %12, i32 noundef 2)
  %mul9 = fmul double -1.200000e+01, %call8
  %13 = load double, ptr %kappa.addr, align 8, !tbaa !53
  %14 = load double, ptr %t.addr, align 8, !tbaa !53
  %15 = call double @llvm.fmuladd.f64(double %13, double %14, double 2.000000e+00)
  %ekt11 = getelementptr inbounds nuw %"class.QuantLib::LPP2HestonExpansion", ptr %this1, i32 0, i32 2
  %16 = load double, ptr %ekt11, align 8, !tbaa !84
  %17 = load double, ptr %kappa.addr, align 8, !tbaa !53
  %18 = load double, ptr %t.addr, align 8, !tbaa !53
  %19 = call double @llvm.fmuladd.f64(double %17, double %18, double -2.000000e+00)
  %20 = call double @llvm.fmuladd.f64(double %16, double %19, double %15)
  %21 = load double, ptr %theta.addr, align 8, !tbaa !53
  %ekt15 = getelementptr inbounds nuw %"class.QuantLib::LPP2HestonExpansion", ptr %this1, i32 0, i32 2
  %22 = load double, ptr %ekt15, align 8, !tbaa !84
  %add16 = fadd double -1.000000e+00, %22
  %23 = load double, ptr %kappa.addr, align 8, !tbaa !53
  %24 = load double, ptr %t.addr, align 8, !tbaa !53
  %neg = fneg double %23
  %25 = call double @llvm.fmuladd.f64(double %neg, double %24, double %add16)
  %26 = load double, ptr %y.addr, align 8, !tbaa !53
  %mul18 = fmul double %25, %26
  %27 = call double @llvm.fmuladd.f64(double %20, double %21, double %mul18)
  %call19 = call noundef double @_ZN8QuantLibL7fastpowEdi(double noundef %27, i32 noundef 2)
  %28 = load double, ptr %theta.addr, align 8, !tbaa !53
  %fneg21 = fneg double %28
  %29 = load double, ptr %kappa.addr, align 8, !tbaa !53
  %30 = load double, ptr %t.addr, align 8, !tbaa !53
  %mul22 = fmul double %29, %30
  %31 = load double, ptr %theta.addr, align 8, !tbaa !53
  %32 = call double @llvm.fmuladd.f64(double %mul22, double %31, double %fneg21)
  %33 = load double, ptr %theta.addr, align 8, !tbaa !53
  %34 = load double, ptr %y.addr, align 8, !tbaa !53
  %sub24 = fsub double %33, %34
  %ekt25 = getelementptr inbounds nuw %"class.QuantLib::LPP2HestonExpansion", ptr %this1, i32 0, i32 2
  %35 = load double, ptr %ekt25, align 8, !tbaa !84
  %div26 = fdiv double %sub24, %35
  %add27 = fadd double %32, %div26
  %36 = load double, ptr %y.addr, align 8, !tbaa !53
  %add28 = fadd double %add27, %36
  %37 = load double, ptr %theta.addr, align 8, !tbaa !53
  %38 = load double, ptr %y.addr, align 8, !tbaa !53
  %39 = call double @llvm.fmuladd.f64(double -2.000000e+00, double %38, double %37)
  %e2kt = getelementptr inbounds nuw %"class.QuantLib::LPP2HestonExpansion", ptr %this1, i32 0, i32 3
  %40 = load double, ptr %e2kt, align 8, !tbaa !87
  %41 = load double, ptr %theta.addr, align 8, !tbaa !53
  %42 = load double, ptr %kappa.addr, align 8, !tbaa !53
  %mul31 = fmul double 2.000000e+00, %42
  %43 = load double, ptr %t.addr, align 8, !tbaa !53
  %mul32 = fmul double %mul31, %43
  %44 = load double, ptr %theta.addr, align 8, !tbaa !53
  %mul33 = fmul double %mul32, %44
  %45 = call double @llvm.fmuladd.f64(double -5.000000e+00, double %41, double %mul33)
  %46 = load double, ptr %y.addr, align 8, !tbaa !53
  %47 = call double @llvm.fmuladd.f64(double 2.000000e+00, double %46, double %45)
  %48 = load double, ptr %rho.addr, align 8, !tbaa !53
  %call35 = call noundef double @_ZN8QuantLibL7fastpowEdi(double noundef %48, i32 noundef 2)
  %mul36 = fmul double 8.000000e+00, %call35
  %49 = load double, ptr %kappa.addr, align 8, !tbaa !53
  %50 = load double, ptr %t.addr, align 8, !tbaa !53
  %51 = call double @llvm.fmuladd.f64(double %49, double %50, double -3.000000e+00)
  %52 = load double, ptr %theta.addr, align 8, !tbaa !53
  %53 = load double, ptr %y.addr, align 8, !tbaa !53
  %54 = call double @llvm.fmuladd.f64(double %51, double %52, double %53)
  %55 = call double @llvm.fmuladd.f64(double %mul36, double %54, double %47)
  %56 = call double @llvm.fmuladd.f64(double %40, double %55, double %39)
  %ekt41 = getelementptr inbounds nuw %"class.QuantLib::LPP2HestonExpansion", ptr %this1, i32 0, i32 2
  %57 = load double, ptr %ekt41, align 8, !tbaa !84
  %mul42 = fmul double 4.000000e+00, %57
  %58 = load double, ptr %theta.addr, align 8, !tbaa !53
  %59 = load double, ptr %kappa.addr, align 8, !tbaa !53
  %60 = load double, ptr %t.addr, align 8, !tbaa !53
  %mul43 = fmul double %59, %60
  %61 = load double, ptr %theta.addr, align 8, !tbaa !53
  %62 = call double @llvm.fmuladd.f64(double %mul43, double %61, double %58)
  %63 = load double, ptr %kappa.addr, align 8, !tbaa !53
  %64 = load double, ptr %t.addr, align 8, !tbaa !53
  %mul45 = fmul double %63, %64
  %65 = load double, ptr %y.addr, align 8, !tbaa !53
  %neg47 = fneg double %mul45
  %66 = call double @llvm.fmuladd.f64(double %neg47, double %65, double %62)
  %67 = load double, ptr %rho.addr, align 8, !tbaa !53
  %call48 = call noundef double @_ZN8QuantLibL7fastpowEdi(double noundef %67, i32 noundef 2)
  %68 = load double, ptr %kappa.addr, align 8, !tbaa !53
  %69 = load double, ptr %t.addr, align 8, !tbaa !53
  %mul49 = fmul double %68, %69
  %70 = load double, ptr %kappa.addr, align 8, !tbaa !53
  %71 = load double, ptr %t.addr, align 8, !tbaa !53
  %72 = call double @llvm.fmuladd.f64(double %70, double %71, double 4.000000e+00)
  %73 = call double @llvm.fmuladd.f64(double %mul49, double %72, double 6.000000e+00)
  %74 = load double, ptr %theta.addr, align 8, !tbaa !53
  %75 = load double, ptr %kappa.addr, align 8, !tbaa !53
  %76 = load double, ptr %t.addr, align 8, !tbaa !53
  %mul53 = fmul double %75, %76
  %77 = load double, ptr %kappa.addr, align 8, !tbaa !53
  %78 = load double, ptr %t.addr, align 8, !tbaa !53
  %79 = call double @llvm.fmuladd.f64(double %77, double %78, double 2.000000e+00)
  %80 = call double @llvm.fmuladd.f64(double %mul53, double %79, double 2.000000e+00)
  %81 = load double, ptr %y.addr, align 8, !tbaa !53
  %mul56 = fmul double %80, %81
  %neg57 = fneg double %mul56
  %82 = call double @llvm.fmuladd.f64(double %73, double %74, double %neg57)
  %83 = call double @llvm.fmuladd.f64(double %call48, double %82, double %66)
  %84 = call double @llvm.fmuladd.f64(double %mul42, double %83, double %56)
  %mul60 = fmul double %add28, %84
  %85 = call double @llvm.fmuladd.f64(double %mul9, double %call19, double %mul60)
  %mul61 = fmul double %mul7, %85
  %e2kt62 = getelementptr inbounds nuw %"class.QuantLib::LPP2HestonExpansion", ptr %this1, i32 0, i32 3
  %86 = load double, ptr %e2kt62, align 8, !tbaa !87
  %mul63 = fmul double 1.600000e+01, %86
  %87 = load double, ptr %theta.addr, align 8, !tbaa !53
  %fneg64 = fneg double %87
  %88 = load double, ptr %kappa.addr, align 8, !tbaa !53
  %89 = load double, ptr %t.addr, align 8, !tbaa !53
  %mul65 = fmul double %88, %89
  %90 = load double, ptr %theta.addr, align 8, !tbaa !53
  %91 = call double @llvm.fmuladd.f64(double %mul65, double %90, double %fneg64)
  %92 = load double, ptr %theta.addr, align 8, !tbaa !53
  %93 = load double, ptr %y.addr, align 8, !tbaa !53
  %sub67 = fsub double %92, %93
  %ekt68 = getelementptr inbounds nuw %"class.QuantLib::LPP2HestonExpansion", ptr %this1, i32 0, i32 2
  %94 = load double, ptr %ekt68, align 8, !tbaa !84
  %div69 = fdiv double %sub67, %94
  %add70 = fadd double %91, %div69
  %95 = load double, ptr %y.addr, align 8, !tbaa !53
  %add71 = fadd double %add70, %95
  %call72 = call noundef double @_ZN8QuantLibL7fastpowEdi(double noundef %add71, i32 noundef 4)
  %mul73 = fmul double %mul63, %call72
  %div74 = fdiv double %mul61, %mul73
  ret double %div74
}