; Function Attrs: mustprogress nofree nounwind willreturn memory(write, argmem: readwrite) uwtable
define noundef double @_ZNK8QuantLib19LPP2HestonExpansion2z2Edddddd(ptr nocapture noundef nonnull readonly align 8 dereferenceable(64) %this, double noundef %t, double noundef %kappa, double noundef %theta, double noundef %delta, double noundef %y, double noundef %rho) local_unnamed_addr #11 align 2 {
entry:
  %square = fmul double %delta, %delta
  %fneg = fneg double %theta
  %mul = fmul double %t, %kappa
  %0 = tail call double @llvm.fmuladd.f64(double %mul, double %theta, double %fneg)
  %sub = fsub double %theta, %y
  %ekt = getelementptr inbounds nuw i8, ptr %this, i64 32
  %1 = load double, ptr %ekt, align 8, !tbaa !120
  %div = fdiv double %sub, %1
  %add = fadd double %0, %div
  %add3 = fadd double %y, %add
  %div5 = fdiv double %add3, %mul
  %call6 = tail call double @sqrt(double noundef %div5) #29, !tbaa !112
  %mul7 = fmul double %square, %call6
  %square63 = fmul double %rho, %rho
  %mul9 = fmul double %square63, -1.200000e+01
  %2 = tail call double @llvm.fmuladd.f64(double %kappa, double %t, double 2.000000e+00)
  %3 = tail call double @llvm.fmuladd.f64(double %kappa, double %t, double -2.000000e+00)
  %4 = tail call double @llvm.fmuladd.f64(double %1, double %3, double %2)
  %add16 = fadd double %1, -1.000000e+00
  %neg = fneg double %kappa
  %5 = tail call double @llvm.fmuladd.f64(double %neg, double %t, double %add16)
  %mul18 = fmul double %y, %5
  %6 = tail call double @llvm.fmuladd.f64(double %4, double %theta, double %mul18)
  %square64 = fmul double %6, %6
  %7 = tail call double @llvm.fmuladd.f64(double %y, double -2.000000e+00, double %theta)
  %e2kt = getelementptr inbounds nuw i8, ptr %this, i64 40
  %8 = load double, ptr %e2kt, align 8, !tbaa !123
  %mul31 = fmul double %kappa, 2.000000e+00
  %mul32 = fmul double %t, %mul31
  %mul33 = fmul double %theta, %mul32
  %9 = tail call double @llvm.fmuladd.f64(double %theta, double -5.000000e+00, double %mul33)
  %10 = tail call double @llvm.fmuladd.f64(double %y, double 2.000000e+00, double %9)
  %mul36 = fmul double %square63, 8.000000e+00
  %11 = tail call double @llvm.fmuladd.f64(double %kappa, double %t, double -3.000000e+00)
  %12 = tail call double @llvm.fmuladd.f64(double %11, double %theta, double %y)
  %13 = tail call double @llvm.fmuladd.f64(double %mul36, double %12, double %10)
  %14 = tail call double @llvm.fmuladd.f64(double %8, double %13, double %7)
  %mul42 = fmul double %1, 4.000000e+00
  %15 = tail call double @llvm.fmuladd.f64(double %mul, double %theta, double %theta)
  %neg47 = fneg double %mul
  %16 = tail call double @llvm.fmuladd.f64(double %neg47, double %y, double %15)
  %17 = tail call double @llvm.fmuladd.f64(double %kappa, double %t, double 4.000000e+00)
  %18 = tail call double @llvm.fmuladd.f64(double %mul, double %17, double 6.000000e+00)
  %19 = tail call double @llvm.fmuladd.f64(double %mul, double %2, double 2.000000e+00)
  %20 = fneg double %y
  %neg57 = fmul double %19, %20
  %21 = tail call double @llvm.fmuladd.f64(double %18, double %theta, double %neg57)
  %22 = tail call double @llvm.fmuladd.f64(double %square63, double %21, double %16)
  %23 = tail call double @llvm.fmuladd.f64(double %mul42, double %22, double %14)
  %mul60 = fmul double %add3, %23
  %24 = tail call double @llvm.fmuladd.f64(double %mul9, double %square64, double %mul60)
  %mul61 = fmul double %mul7, %24
  %mul63 = fmul double %8, 1.600000e+01
  %call.i.i62 = tail call noundef double @pow(double noundef %add3, double noundef 4.000000e+00) #29, !tbaa !112
  %mul73 = fmul double %mul63, %call.i.i62
  %div74 = fdiv double %mul61, %mul73
  ret double %div74
}